target datalayout = "e-m:e-p270:32:32-p271:32:32-p272:64:64-i64:64-i128:128-f80:128-n8:16:32:64-S128"
target triple = "x86_64-pc-linux-gnu"

%struct.iovec = type { ptr, i64 }

@pg_pwrite_zeros.zbuffer = internal constant { [8192 x i8] } zeroinitializer, align 4096

; Function Attrs: nounwind uwtable
define i32 @compute_remaining_iovec(ptr noundef %0, ptr noundef %1, i32 noundef %2, i64 noundef %3) #0 {
  %5 = alloca i32, align 4
  %6 = alloca ptr, align 8
  %7 = alloca ptr, align 8
  %8 = alloca i32, align 4
  %9 = alloca i64, align 8
  store ptr %0, ptr %6, align 8
  store ptr %1, ptr %7, align 8
  store i32 %2, ptr %8, align 4
  store i64 %3, ptr %9, align 8
  br label %10

10:                                               ; preds = %29, %4
  %11 = load ptr, ptr %7, align 8
  %12 = getelementptr inbounds nuw %struct.iovec, ptr %11, i32 0, i32 1
  %13 = load i64, ptr %12, align 8
  %14 = load i64, ptr %9, align 8
  %15 = icmp ule i64 %13, %14
  br i1 %15, label %16, label %30

16:                                               ; preds = %10
  %17 = load ptr, ptr %7, align 8
  %18 = getelementptr inbounds nuw %struct.iovec, ptr %17, i32 0, i32 1
  %19 = load i64, ptr %18, align 8
  %20 = load i64, ptr %9, align 8
  %21 = sub i64 %20, %19
  store i64 %21, ptr %9, align 8
  %22 = load ptr, ptr %7, align 8
  %23 = getelementptr inbounds nuw %struct.iovec, ptr %22, i32 1
  store ptr %23, ptr %7, align 8
  %24 = load i32, ptr %8, align 4
  %25 = add i32 %24, -1
  store i32 %25, ptr %8, align 4
  %26 = load i32, ptr %8, align 4
  %27 = icmp eq i32 %26, 0
  br i1 %27, label %28, label %29

28:                                               ; preds = %16
  store i32 0, ptr %5, align 4
  br label %54

29:                                               ; preds = %16
  br label %10, !llvm.loop !8

30:                                               ; preds = %10
  %31 = load ptr, ptr %7, align 8
  %32 = load ptr, ptr %6, align 8
  %33 = icmp ne ptr %31, %32
  br i1 %33, label %34, label %40

34:                                               ; preds = %30
  %35 = load ptr, ptr %6, align 8
  %36 = load ptr, ptr %7, align 8
  %37 = load i32, ptr %8, align 4
  %38 = sext i32 %37 to i64
  %39 = mul i64 16, %38
  call void @llvm.memmove.p0.p0.i64(ptr align 8 %35, ptr align 8 %36, i64 %39, i1 false)
  br label %40

40:                                               ; preds = %34, %30
  %41 = load ptr, ptr %6, align 8
  %42 = getelementptr inbounds nuw %struct.iovec, ptr %41, i32 0, i32 0
  %43 = load ptr, ptr %42, align 8
  %44 = load i64, ptr %9, align 8
  %45 = getelementptr inbounds nuw i8, ptr %43, i64 %44
  %46 = load ptr, ptr %6, align 8
  %47 = getelementptr inbounds nuw %struct.iovec, ptr %46, i32 0, i32 0
  store ptr %45, ptr %47, align 8
  %48 = load i64, ptr %9, align 8
  %49 = load ptr, ptr %6, align 8
  %50 = getelementptr inbounds nuw %struct.iovec, ptr %49, i32 0, i32 1
  %51 = load i64, ptr %50, align 8
  %52 = sub i64 %51, %48
  store i64 %52, ptr %50, align 8
  %53 = load i32, ptr %8, align 4
  store i32 %53, ptr %5, align 4
  br label %54

54:                                               ; preds = %40, %28
  %55 = load i32, ptr %5, align 4
  ret i32 %55
}

; Function Attrs: inlinehint nounwind uwtable
define internal i64 @pg_pwritev(i32 noundef %0, ptr noundef %1, i32 noundef %2, i64 noundef %3) #8 {
  %5 = alloca i64, align 8
  %6 = alloca i32, align 4
  %7 = alloca ptr, align 8
  %8 = alloca i32, align 4
  %9 = alloca i64, align 8
  store i32 %0, ptr %6, align 4
  store ptr %1, ptr %7, align 8
  store i32 %2, ptr %8, align 4
  store i64 %3, ptr %9, align 8
  %10 = load i32, ptr %8, align 4
  %11 = icmp eq i32 %10, 1
  br i1 %11, label %12, label %24

12:                                               ; preds = %4
  %13 = load i32, ptr %6, align 4
  %14 = load ptr, ptr %7, align 8
  %15 = getelementptr inbounds %struct.iovec, ptr %14, i64 0
  %16 = getelementptr inbounds nuw %struct.iovec, ptr %15, i32 0, i32 0
  %17 = load ptr, ptr %16, align 8
  %18 = load ptr, ptr %7, align 8
  %19 = getelementptr inbounds %struct.iovec, ptr %18, i64 0
  %20 = getelementptr inbounds nuw %struct.iovec, ptr %19, i32 0, i32 1
  %21 = load i64, ptr %20, align 8
  %22 = load i64, ptr %9, align 8
  %23 = call i64 @pwrite(i32 noundef %13, ptr noundef %17, i64 noundef %21, i64 noundef %22)
  store i64 %23, ptr %5, align 8
  br label %30

24:                                               ; preds = %4
  %25 = load i32, ptr %6, align 4
  %26 = load ptr, ptr %7, align 8
  %27 = load i32, ptr %8, align 4
  %28 = load i64, ptr %9, align 8
  %29 = call i64 @pwritev(i32 noundef %25, ptr noundef %26, i32 noundef %27, i64 noundef %28)
  store i64 %29, ptr %5, align 8
  br label %30

30:                                               ; preds = %24, %12
  %31 = load i64, ptr %5, align 8
  ret i64 %31
}

; Function Attrs: nounwind uwtable
define i64 @pg_pwritev_with_retry(i32 noundef %0, ptr noundef %1, i32 noundef %2, i64 noundef %3) #0 {
  %5 = alloca i64, align 8
  %6 = alloca i32, align 4
  %7 = alloca ptr, align 8
  %8 = alloca i32, align 4
  %9 = alloca i64, align 8
  %10 = alloca [32 x %struct.iovec], align 16
  %11 = alloca i64, align 8
  %12 = alloca i64, align 8
  %13 = alloca i32, align 4
  store i32 %0, ptr %6, align 4
  store ptr %1, ptr %7, align 8
  store i32 %2, ptr %8, align 4
  store i64 %3, ptr %9, align 8
  call void @llvm.lifetime.start.p0(i64 512, ptr %10) #9
  call void @llvm.lifetime.start.p0(i64 8, ptr %11) #9
  store i64 0, ptr %11, align 8
  call void @llvm.lifetime.start.p0(i64 8, ptr %12) #9
  %14 = load i32, ptr %8, align 4
  %15 = icmp sgt i32 %14, 32
  br i1 %15, label %16, label %18

16:                                               ; preds = %4
  %17 = call ptr @__errno_location() #10
  store i32 22, ptr %17, align 4
  store i64 -1, ptr %5, align 8
  store i32 1, ptr %13, align 4
  br label %46

18:                                               ; preds = %4
  br label %19

19:                                               ; preds = %41, %18
  %20 = load i32, ptr %6, align 4
  %21 = load ptr, ptr %7, align 8
  %22 = load i32, ptr %8, align 4
  %23 = load i64, ptr %9, align 8
  %24 = call i64 @pg_pwritev(i32 noundef %20, ptr noundef %21, i32 noundef %22, i64 noundef %23)
  store i64 %24, ptr %12, align 8
  %25 = load i64, ptr %12, align 8
  %26 = icmp slt i64 %25, 0
  br i1 %26, label %27, label %28

27:                                               ; preds = %19
  store i64 -1, ptr %5, align 8
  store i32 1, ptr %13, align 4
  br label %46

28:                                               ; preds = %19
  %29 = load i64, ptr %12, align 8
  %30 = load i64, ptr %11, align 8
  %31 = add i64 %30, %29
  store i64 %31, ptr %11, align 8
  %32 = load i64, ptr %12, align 8
  %33 = load i64, ptr %9, align 8
  %34 = add i64 %33, %32
  store i64 %34, ptr %9, align 8
  %35 = getelementptr inbounds [32 x %struct.iovec], ptr %10, i64 0, i64 0
  %36 = load ptr, ptr %7, align 8
  %37 = load i32, ptr %8, align 4
  %38 = load i64, ptr %12, align 8
  %39 = call i32 @compute_remaining_iovec(ptr noundef %35, ptr noundef %36, i32 noundef %37, i64 noundef %38)
  store i32 %39, ptr %8, align 4
  %40 = getelementptr inbounds [32 x %struct.iovec], ptr %10, i64 0, i64 0
  store ptr %40, ptr %7, align 8
  br label %41

41:                                               ; preds = %28
  %42 = load i32, ptr %8, align 4
  %43 = icmp sgt i32 %42, 0
  br i1 %43, label %19, label %44, !llvm.loop !9

44:                                               ; preds = %41
  %45 = load i64, ptr %11, align 8
  store i64 %45, ptr %5, align 8
  store i32 1, ptr %13, align 4
  br label %46

46:                                               ; preds = %44, %27, %16
  call void @llvm.lifetime.end.p0(i64 8, ptr %12) #9
  call void @llvm.lifetime.end.p0(i64 8, ptr %11) #9
  call void @llvm.lifetime.end.p0(i64 512, ptr %10) #9
  %47 = load i64, ptr %5, align 8
  ret i64 %47
}

; Function Attrs: nounwind uwtable
define i64 @pg_pwrite_zeros(i32 noundef %0, i64 noundef %1, i64 noundef %2) #0 {
  %4 = alloca i64, align 8
  %5 = alloca i32, align 4
  %6 = alloca i64, align 8
  %7 = alloca i64, align 8
  %8 = alloca ptr, align 8
  %9 = alloca i32, align 4
  %10 = alloca [32 x %struct.iovec], align 16
  %11 = alloca i64, align 8
  %12 = alloca i64, align 8
  %13 = alloca i32, align 4
  %14 = alloca i64, align 8
  %15 = alloca i64, align 8
  %16 = alloca i32, align 4
  store i32 %0, ptr %5, align 4
  store i64 %1, ptr %6, align 8
  store i64 %2, ptr %7, align 8
  call void @llvm.lifetime.start.p0(i64 8, ptr %8) #9
  br label %17

17:                                               ; preds = %3
  br label %18

18:                                               ; preds = %17
  br label %19

19:                                               ; preds = %18
  store i32 1, ptr %9, align 4
  store ptr @pg_pwrite_zeros.zbuffer, ptr %8, align 8
  call void @llvm.lifetime.start.p0(i64 512, ptr %10) #9
  call void @llvm.lifetime.start.p0(i64 8, ptr %11) #9
  %20 = load i64, ptr %6, align 8
  store i64 %20, ptr %11, align 8
  call void @llvm.lifetime.start.p0(i64 8, ptr %12) #9
  store i64 0, ptr %12, align 8
  br label %21

21:                                               ; preds = %75, %19
  %22 = load i64, ptr %11, align 8
  %23 = icmp ugt i64 %22, 0
  br i1 %23, label %24, label %76

24:                                               ; preds = %21
  call void @llvm.lifetime.start.p0(i64 4, ptr %13) #9
  store i32 0, ptr %13, align 4
  call void @llvm.lifetime.start.p0(i64 8, ptr %14) #9
  br label %25

25:                                               ; preds = %53, %24
  %26 = load i32, ptr %13, align 4
  %27 = icmp slt i32 %26, 32
  br i1 %27, label %28, label %31

28:                                               ; preds = %25
  %29 = load i64, ptr %11, align 8
  %30 = icmp ugt i64 %29, 0
  br label %31

31:                                               ; preds = %28, %25
  %32 = phi i1 [ false, %25 ], [ %30, %28 ]
  br i1 %32, label %33, label %56

33:                                               ; preds = %31
  call void @llvm.lifetime.start.p0(i64 8, ptr %15) #9
  %34 = load ptr, ptr %8, align 8
  %35 = load i32, ptr %13, align 4
  %36 = sext i32 %35 to i64
  %37 = getelementptr inbounds [32 x %struct.iovec], ptr %10, i64 0, i64 %36
  %38 = getelementptr inbounds nuw %struct.iovec, ptr %37, i32 0, i32 0
  store ptr %34, ptr %38, align 16
  %39 = load i64, ptr %11, align 8
  %40 = icmp ult i64 %39, 8192
  br i1 %40, label %41, label %43

41:                                               ; preds = %33
  %42 = load i64, ptr %11, align 8
  store i64 %42, ptr %15, align 8
  br label %44

43:                                               ; preds = %33
  store i64 8192, ptr %15, align 8
  br label %44

44:                                               ; preds = %43, %41
  %45 = load i64, ptr %15, align 8
  %46 = load i32, ptr %13, align 4
  %47 = sext i32 %46 to i64
  %48 = getelementptr inbounds [32 x %struct.iovec], ptr %10, i64 0, i64 %47
  %49 = getelementptr inbounds nuw %struct.iovec, ptr %48, i32 0, i32 1
  store i64 %45, ptr %49, align 8
  %50 = load i64, ptr %15, align 8
  %51 = load i64, ptr %11, align 8
  %52 = sub i64 %51, %50
  store i64 %52, ptr %11, align 8
  call void @llvm.lifetime.end.p0(i64 8, ptr %15) #9
  br label %53

53:                                               ; preds = %44
  %54 = load i32, ptr %13, align 4
  %55 = add i32 %54, 1
  store i32 %55, ptr %13, align 4
  br label %25, !llvm.loop !10

56:                                               ; preds = %31
  %57 = load i32, ptr %5, align 4
  %58 = getelementptr inbounds [32 x %struct.iovec], ptr %10, i64 0, i64 0
  %59 = load i32, ptr %13, align 4
  %60 = load i64, ptr %7, align 8
  %61 = call i64 @pg_pwritev_with_retry(i32 noundef %57, ptr noundef %58, i32 noundef %59, i64 noundef %60)
  store i64 %61, ptr %14, align 8
  %62 = load i64, ptr %14, align 8
  %63 = icmp slt i64 %62, 0
  br i1 %63, label %64, label %66

64:                                               ; preds = %56
  %65 = load i64, ptr %14, align 8
  store i64 %65, ptr %4, align 8
  store i32 1, ptr %16, align 4
  br label %73

66:                                               ; preds = %56
  %67 = load i64, ptr %14, align 8
  %68 = load i64, ptr %7, align 8
  %69 = add i64 %68, %67
  store i64 %69, ptr %7, align 8
  %70 = load i64, ptr %14, align 8
  %71 = load i64, ptr %12, align 8
  %72 = add i64 %71, %70
  store i64 %72, ptr %12, align 8
  store i32 0, ptr %16, align 4
  br label %73

73:                                               ; preds = %66, %64
  call void @llvm.lifetime.end.p0(i64 8, ptr %14) #9
  call void @llvm.lifetime.end.p0(i64 4, ptr %13) #9
  %74 = load i32, ptr %16, align 4
  switch i32 %74, label %78 [
    i32 0, label %75
  ]

75:                                               ; preds = %73
  br label %21, !llvm.loop !11

76:                                               ; preds = %21
  %77 = load i64, ptr %12, align 8
  store i64 %77, ptr %4, align 8
  store i32 1, ptr %16, align 4
  br label %78

78:                                               ; preds = %76, %73
  call void @llvm.lifetime.end.p0(i64 8, ptr %12) #9
  call void @llvm.lifetime.end.p0(i64 8, ptr %11) #9
  call void @llvm.lifetime.end.p0(i64 512, ptr %10) #9
  call void @llvm.lifetime.end.p0(i64 8, ptr %8) #9
  %79 = load i64, ptr %4, align 8
  ret i64 %79
}