; Function Attrs: nounwind uwtable
define i64 @pg_pwrite_zeros(i32 noundef %0, i64 noundef %1, i64 noundef %2) local_unnamed_addr #0 {
  %4 = alloca [32 x %struct.iovec], align 16
  %5 = alloca [32 x %struct.iovec], align 16
  call void @llvm.lifetime.start.p0(i64 512, ptr nonnull %5) #11
  %.018.sroa.gep23.i = getelementptr inbounds nuw i8, ptr %4, i64 8
  %.018.sroa.gep.i = getelementptr inbounds nuw i8, ptr %5, i64 8
  br label %6

6:                                                ; preds = %pg_pwritev_with_retry.exit, %3
  %.031 = phi i64 [ %2, %3 ], [ %43, %pg_pwritev_with_retry.exit ]
  %.029 = phi i64 [ %1, %3 ], [ %9, %pg_pwritev_with_retry.exit ]
  %.027 = phi i64 [ 0, %3 ], [ %44, %pg_pwritev_with_retry.exit ]
  %.not = icmp eq i64 %.029, 0
  br i1 %.not, label %.loopexit, label %.preheader

.preheader:                                       ; preds = %6, %.preheader
  %indvars.iv = phi i64 [ %indvars.iv.next, %.preheader ], [ 0, %6 ]
  %.13044 = phi i64 [ %9, %.preheader ], [ %.029, %6 ]
  %7 = getelementptr inbounds nuw [32 x %struct.iovec], ptr %5, i64 0, i64 %indvars.iv
  store ptr @pg_pwrite_zeros.zbuffer, ptr %7, align 16
  %.130. = call i64 @llvm.umin.i64(i64 %.13044, i64 8192)
  %8 = getelementptr inbounds nuw i8, ptr %7, i64 8
  store i64 %.130., ptr %8, align 8
  %9 = sub i64 %.13044, %.130.
  %indvars.iv.next = add nuw nsw i64 %indvars.iv, 1
  %10 = icmp samesign ult i64 %indvars.iv, 31
  %11 = icmp ne i64 %9, 0
  %12 = select i1 %10, i1 %11, i1 false
  br i1 %12, label %.preheader, label %.preheader.preheader.i, !llvm.loop !9

.preheader.preheader.i:                           ; preds = %.preheader
  %13 = trunc nuw nsw i64 %indvars.iv.next to i32
  call void @llvm.lifetime.start.p0(i64 512, ptr nonnull %4) #11
  br label %.preheader.i

.preheader.i:                                     ; preds = %compute_remaining_iovec.exit.i, %.preheader.preheader.i
  %.018.sroa.phi.i = phi ptr [ %.018.sroa.gep23.i, %compute_remaining_iovec.exit.i ], [ %.018.sroa.gep.i, %.preheader.preheader.i ]
  %.018.i = phi ptr [ %4, %compute_remaining_iovec.exit.i ], [ %5, %.preheader.preheader.i ]
  %.017.i = phi i32 [ %.018.i.i, %compute_remaining_iovec.exit.i ], [ %13, %.preheader.preheader.i ]
  %.016.i = phi i64 [ %24, %compute_remaining_iovec.exit.i ], [ %.031, %.preheader.preheader.i ]
  %.015.i = phi i64 [ %23, %compute_remaining_iovec.exit.i ], [ 0, %.preheader.preheader.i ]
  %14 = icmp eq i32 %.017.i, 1
  br i1 %14, label %15, label %19

15:                                               ; preds = %.preheader.i
  %16 = load ptr, ptr %.018.i, align 16
  %17 = load i64, ptr %.018.sroa.phi.i, align 8
  %18 = call i64 @pwrite(i32 noundef %0, ptr noundef %16, i64 noundef %17, i64 noundef %.016.i) #11
  br label %pg_pwritev.exit.i

19:                                               ; preds = %.preheader.i
  %20 = call i64 @pwritev(i32 noundef %0, ptr noundef nonnull %.018.i, i32 noundef %.017.i, i64 noundef %.016.i) #11
  br label %pg_pwritev.exit.i

pg_pwritev.exit.i:                                ; preds = %19, %15
  %.0.i.i = phi i64 [ %18, %15 ], [ %20, %19 ]
  %21 = icmp slt i64 %.0.i.i, 0
  br i1 %21, label %pg_pwritev_with_retry.exit.thread, label %22

pg_pwritev_with_retry.exit.thread:                ; preds = %pg_pwritev.exit.i
  call void @llvm.lifetime.end.p0(i64 512, ptr nonnull %4) #11
  br label %.loopexit

22:                                               ; preds = %pg_pwritev.exit.i
  %23 = add i64 %.0.i.i, %.015.i
  %24 = add i64 %.0.i.i, %.016.i
  br label %25

25:                                               ; preds = %28, %22
  %.019.i.i = phi ptr [ %.018.i, %22 ], [ %30, %28 ]
  %.018.i.i = phi i32 [ %.017.i, %22 ], [ %31, %28 ]
  %.0.i22.i = phi i64 [ %.0.i.i, %22 ], [ %29, %28 ]
  %26 = getelementptr inbounds nuw i8, ptr %.019.i.i, i64 8
  %27 = load i64, ptr %26, align 8
  %.not.i.i = icmp ugt i64 %27, %.0.i22.i
  br i1 %.not.i.i, label %33, label %28

28:                                               ; preds = %25
  %29 = sub nuw i64 %.0.i22.i, %27
  %30 = getelementptr inbounds nuw i8, ptr %.019.i.i, i64 16
  %31 = add i32 %.018.i.i, -1
  %32 = icmp eq i32 %31, 0
  br i1 %32, label %pg_pwritev_with_retry.exit, label %25, !llvm.loop !7

33:                                               ; preds = %25
  %.not24.i.i = icmp eq ptr %.019.i.i, %4
  br i1 %.not24.i.i, label %compute_remaining_iovec.exit.i, label %34

34:                                               ; preds = %33
  %35 = sext i32 %.018.i.i to i64
  %36 = shl nsw i64 %35, 4
  call void @llvm.memmove.p0.p0.i64(ptr nonnull align 16 %4, ptr nonnull align 8 %.019.i.i, i64 %36, i1 false)
  br label %compute_remaining_iovec.exit.i

compute_remaining_iovec.exit.i:                   ; preds = %34, %33
  %37 = load ptr, ptr %4, align 16
  %38 = getelementptr inbounds nuw i8, ptr %37, i64 %.0.i22.i
  store ptr %38, ptr %4, align 16
  %39 = load i64, ptr %.018.sroa.gep23.i, align 8
  %40 = sub i64 %39, %.0.i22.i
  store i64 %40, ptr %.018.sroa.gep23.i, align 8
  %41 = icmp sgt i32 %.018.i.i, 0
  br i1 %41, label %.preheader.i, label %pg_pwritev_with_retry.exit, !llvm.loop !8

pg_pwritev_with_retry.exit:                       ; preds = %compute_remaining_iovec.exit.i, %28
  call void @llvm.lifetime.end.p0(i64 512, ptr nonnull %4) #11
  %42 = icmp sgt i64 %23, -1
  %43 = add i64 %23, %.031
  %44 = add i64 %23, %.027
  br i1 %42, label %6, label %.loopexit, !llvm.loop !10

.loopexit:                                        ; preds = %6, %pg_pwritev_with_retry.exit, %pg_pwritev_with_retry.exit.thread
  %.2 = phi i64 [ -1, %pg_pwritev_with_retry.exit.thread ], [ %.027, %6 ], [ %23, %pg_pwritev_with_retry.exit ]
  call void @llvm.lifetime.end.p0(i64 512, ptr nonnull %5) #11
  ret i64 %.2
}